target datalayout = "e-m:e-p270:32:32-p271:32:32-p272:64:64-i64:64-i128:128-f80:128-n8:16:32:64-S128"
target triple = "x86_64-pc-linux-gnu"

%struct.UFILE = type { ptr, ptr, ptr, %struct.u_localized_string, [1024 x i16], i8, i32 }
%struct.u_localized_string = type { ptr, ptr, ptr, %struct.ULocaleBundle }
%struct.ULocaleBundle = type { ptr, [5 x ptr], i8 }

; Function Attrs: mustprogress uwtable
define i32 @u_file_read_77(ptr noundef %0, i32 noundef %1, ptr noundef %2) #0 {
  %4 = alloca ptr, align 8
  %5 = alloca i32, align 4
  %6 = alloca ptr, align 8
  %7 = alloca i32, align 4
  %8 = alloca i32, align 4
  %9 = alloca ptr, align 8
  store ptr %0, ptr %4, align 8, !tbaa !30
  store i32 %1, ptr %5, align 4, !tbaa !31
  store ptr %2, ptr %6, align 8, !tbaa !3
  call void @llvm.lifetime.start.p0(i64 4, ptr %7) #10
  call void @llvm.lifetime.start.p0(i64 4, ptr %8) #10
  store i32 0, ptr %8, align 4, !tbaa !31
  call void @llvm.lifetime.start.p0(i64 8, ptr %9) #10
  %10 = load ptr, ptr %6, align 8, !tbaa !3
  %11 = getelementptr inbounds nuw %struct.UFILE, ptr %10, i32 0, i32 3
  store ptr %11, ptr %9, align 8, !tbaa !49
  br label %12

12:                                               ; preds = %76, %3
  %13 = load ptr, ptr %9, align 8, !tbaa !49
  %14 = getelementptr inbounds nuw %struct.u_localized_string, ptr %13, i32 0, i32 1
  %15 = load ptr, ptr %14, align 8, !tbaa !51
  %16 = load ptr, ptr %9, align 8, !tbaa !49
  %17 = getelementptr inbounds nuw %struct.u_localized_string, ptr %16, i32 0, i32 0
  %18 = load ptr, ptr %17, align 8, !tbaa !52
  %19 = ptrtoint ptr %15 to i64
  %20 = ptrtoint ptr %18 to i64
  %21 = sub i64 %19, %20
  %22 = sdiv exact i64 %21, 2
  %23 = trunc i64 %22 to i32
  store i32 %23, ptr %7, align 4, !tbaa !31
  %24 = load i32, ptr %7, align 4, !tbaa !31
  %25 = icmp sle i32 %24, 0
  br i1 %25, label %26, label %39

26:                                               ; preds = %12
  %27 = load ptr, ptr %6, align 8, !tbaa !3
  call void @_Z26ufile_fill_uchar_buffer_77P5UFILE(ptr noundef %27)
  %28 = load ptr, ptr %9, align 8, !tbaa !49
  %29 = getelementptr inbounds nuw %struct.u_localized_string, ptr %28, i32 0, i32 1
  %30 = load ptr, ptr %29, align 8, !tbaa !51
  %31 = load ptr, ptr %9, align 8, !tbaa !49
  %32 = getelementptr inbounds nuw %struct.u_localized_string, ptr %31, i32 0, i32 0
  %33 = load ptr, ptr %32, align 8, !tbaa !52
  %34 = ptrtoint ptr %30 to i64
  %35 = ptrtoint ptr %33 to i64
  %36 = sub i64 %34, %35
  %37 = sdiv exact i64 %36, 2
  %38 = trunc i64 %37 to i32
  store i32 %38, ptr %7, align 4, !tbaa !31
  br label %39

39:                                               ; preds = %26, %12
  %40 = load i32, ptr %7, align 4, !tbaa !31
  %41 = load i32, ptr %5, align 4, !tbaa !31
  %42 = load i32, ptr %8, align 4, !tbaa !31
  %43 = sub nsw i32 %41, %42
  %44 = icmp sgt i32 %40, %43
  br i1 %44, label %45, label %49

45:                                               ; preds = %39
  %46 = load i32, ptr %5, align 4, !tbaa !31
  %47 = load i32, ptr %8, align 4, !tbaa !31
  %48 = sub nsw i32 %46, %47
  store i32 %48, ptr %7, align 4, !tbaa !31
  br label %49

49:                                               ; preds = %45, %39
  %50 = load ptr, ptr %4, align 8, !tbaa !30
  %51 = load i32, ptr %8, align 4, !tbaa !31
  %52 = sext i32 %51 to i64
  %53 = getelementptr inbounds i16, ptr %50, i64 %52
  %54 = load ptr, ptr %9, align 8, !tbaa !49
  %55 = getelementptr inbounds nuw %struct.u_localized_string, ptr %54, i32 0, i32 0
  %56 = load ptr, ptr %55, align 8, !tbaa !52
  %57 = load i32, ptr %7, align 4, !tbaa !31
  %58 = sext i32 %57 to i64
  %59 = mul i64 %58, 2
  call void @llvm.memcpy.p0.p0.i64(ptr align 2 %53, ptr align 2 %56, i64 %59, i1 false)
  %60 = load i32, ptr %7, align 4, !tbaa !31
  %61 = load i32, ptr %8, align 4, !tbaa !31
  %62 = add nsw i32 %61, %60
  store i32 %62, ptr %8, align 4, !tbaa !31
  %63 = load i32, ptr %7, align 4, !tbaa !31
  %64 = load ptr, ptr %9, align 8, !tbaa !49
  %65 = getelementptr inbounds nuw %struct.u_localized_string, ptr %64, i32 0, i32 0
  %66 = load ptr, ptr %65, align 8, !tbaa !52
  %67 = sext i32 %63 to i64
  %68 = getelementptr inbounds i16, ptr %66, i64 %67
  store ptr %68, ptr %65, align 8, !tbaa !52
  br label %69

69:                                               ; preds = %49
  %70 = load i32, ptr %7, align 4, !tbaa !31
  %71 = icmp ne i32 %70, 0
  br i1 %71, label %72, label %76

72:                                               ; preds = %69
  %73 = load i32, ptr %8, align 4, !tbaa !31
  %74 = load i32, ptr %5, align 4, !tbaa !31
  %75 = icmp slt i32 %73, %74
  br label %76

76:                                               ; preds = %72, %69
  %77 = phi i1 [ false, %69 ], [ %75, %72 ]
  br i1 %77, label %12, label %78, !llvm.loop !57

78:                                               ; preds = %76
  %79 = load i32, ptr %8, align 4, !tbaa !31
  call void @llvm.lifetime.end.p0(i64 8, ptr %9) #10
  call void @llvm.lifetime.end.p0(i64 4, ptr %8) #10
  call void @llvm.lifetime.end.p0(i64 4, ptr %7) #10
  ret i32 %79
}