; Function Attrs: mustprogress uwtable
define i32 @u_file_read_77(ptr noundef writeonly captures(none) %0, i32 noundef %1, ptr noundef %2) local_unnamed_addr #0 {
  %4 = getelementptr inbounds nuw i8, ptr %2, i64 24
  %5 = getelementptr inbounds nuw i8, ptr %2, i64 32
  %.pre = load ptr, ptr %4, align 8, !tbaa !41
  br label %6

6:                                                ; preds = %23, %3
  %7 = phi ptr [ %.pre, %3 ], [ %32, %23 ]
  %.023 = phi i32 [ 0, %3 ], [ %30, %23 ]
  %8 = load ptr, ptr %5, align 8, !tbaa !40
  %9 = ptrtoint ptr %8 to i64
  %10 = ptrtoint ptr %7 to i64
  %11 = sub i64 %9, %10
  %12 = lshr exact i64 %11, 1
  %13 = trunc i64 %12 to i32
  %14 = icmp slt i32 %13, 1
  br i1 %14, label %15, label %23

15:                                               ; preds = %6
  tail call void @_Z26ufile_fill_uchar_buffer_77P5UFILE(ptr noundef nonnull %2)
  %16 = load ptr, ptr %5, align 8, !tbaa !40
  %17 = load ptr, ptr %4, align 8, !tbaa !41
  %18 = ptrtoint ptr %16 to i64
  %19 = ptrtoint ptr %17 to i64
  %20 = sub i64 %18, %19
  %21 = lshr exact i64 %20, 1
  %22 = trunc i64 %21 to i32
  br label %23

23:                                               ; preds = %15, %6
  %24 = phi ptr [ %17, %15 ], [ %7, %6 ]
  %.0 = phi i32 [ %22, %15 ], [ %13, %6 ]
  %25 = sub nsw i32 %1, %.023
  %spec.select = tail call i32 @llvm.smin.i32(i32 %.0, i32 %25)
  %26 = sext i32 %.023 to i64
  %27 = getelementptr inbounds i16, ptr %0, i64 %26
  %28 = sext i32 %spec.select to i64
  %29 = shl nsw i64 %28, 1
  tail call void @llvm.memcpy.p0.p0.i64(ptr align 2 %27, ptr align 2 %24, i64 %29, i1 false)
  %30 = add nsw i32 %spec.select, %.023
  %31 = load ptr, ptr %4, align 8, !tbaa !41
  %32 = getelementptr inbounds i16, ptr %31, i64 %28
  store ptr %32, ptr %4, align 8, !tbaa !41
  %33 = icmp ne i32 %spec.select, 0
  %34 = icmp slt i32 %30, %1
  %35 = select i1 %33, i1 %34, i1 false
  br i1 %35, label %6, label %36, !llvm.loop !46

36:                                               ; preds = %23
  ret i32 %30
}